; ModuleID = '57/1107.c'
source_filename = "57/1107.c"
target datalayout = "e-m:e-p270:32:32-p271:32:32-p272:64:64-i64:64-f80:128-n8:16:32:64-S128"
target triple = "x86_64-pc-linux-gnu"

@.str = private unnamed_addr constant [3 x i8] c"%d\00", align 1
@.str.1 = private unnamed_addr constant [3 x i8] c"%s\00", align 1
@.str.2 = private unnamed_addr constant [4 x i8] c"%s\0A\00", align 1

; Function Attrs: noinline nounwind uwtable
define dso_local i32 @main() #0 {
  %1 = alloca i32, align 4
  %2 = alloca [32 x i8], align 16
  %3 = alloca i32, align 4
  %4 = alloca i32, align 4
  %5 = alloca i32, align 4
  store i32 0, i32* %1, align 4
  %6 = call i32 (i8*, ...) @__isoc99_scanf(i8* getelementptr inbounds ([3 x i8], [3 x i8]* @.str, i64 0, i64 0), i32* %3)
  store i32 0, i32* %4, align 4
  br label %7

7:                                                ; preds = %18, %0
  %8 = load i32, i32* %4, align 4
  %9 = load i32, i32* %3, align 4
  %10 = icmp slt i32 %8, %9
  br i1 %10, label %11, label %21

11:                                               ; preds = %7
  %12 = getelementptr inbounds [32 x i8], [32 x i8]* %2, i64 0, i64 0
  %13 = call i32 (i8*, ...) @__isoc99_scanf(i8* getelementptr inbounds ([3 x i8], [3 x i8]* @.str.1, i64 0, i64 0), i8* %12)
  %14 = getelementptr inbounds [32 x i8], [32 x i8]* %2, i64 0, i64 0
  %15 = call i32 @sc(i8* %14)
  store i32 %15, i32* %5, align 4
  %16 = getelementptr inbounds [32 x i8], [32 x i8]* %2, i64 0, i64 0
  %17 = call i32 (i8*, ...) @printf(i8* getelementptr inbounds ([4 x i8], [4 x i8]* @.str.2, i64 0, i64 0), i8* %16)
  br label %18

18:                                               ; preds = %11
  %19 = load i32, i32* %4, align 4
  %20 = add nsw i32 %19, 1
  store i32 %20, i32* %4, align 4
  br label %7

21:                                               ; preds = %7
  ret i32 0
}

declare dso_local i32 @__isoc99_scanf(i8*, ...) #1

; Function Attrs: noinline nounwind uwtable
define dso_local i32 @sc(i8* %0) #0 {
  %2 = alloca i8*, align 8
  %3 = alloca i32, align 4
  store i8* %0, i8** %2, align 8
  %4 = load i8*, i8** %2, align 8
  %5 = call i64 @strlen(i8* %4) #3
  %6 = trunc i64 %5 to i32
  store i32 %6, i32* %3, align 4
  %7 = load i8*, i8** %2, align 8
  %8 = load i32, i32* %3, align 4
  %9 = sub nsw i32 %8, 3
  %10 = sext i32 %9 to i64
  %11 = getelementptr inbounds i8, i8* %7, i64 %10
  %12 = load i8, i8* %11, align 1
  %13 = sext i8 %12 to i32
  %14 = icmp eq i32 %13, 105
  br i1 %14, label %15, label %39

15:                                               ; preds = %1
  %16 = load i8*, i8** %2, align 8
  %17 = load i32, i32* %3, align 4
  %18 = sub nsw i32 %17, 2
  %19 = sext i32 %18 to i64
  %20 = getelementptr inbounds i8, i8* %16, i64 %19
  %21 = load i8, i8* %20, align 1
  %22 = sext i8 %21 to i32
  %23 = icmp eq i32 %22, 110
  br i1 %23, label %24, label %39

24:                                               ; preds = %15
  %25 = load i8*, i8** %2, align 8
  %26 = load i32, i32* %3, align 4
  %27 = sub nsw i32 %26, 1
  %28 = sext i32 %27 to i64
  %29 = getelementptr inbounds i8, i8* %25, i64 %28
  %30 = load i8, i8* %29, align 1
  %31 = sext i8 %30 to i32
  %32 = icmp eq i32 %31, 103
  br i1 %32, label %33, label %39

33:                                               ; preds = %24
  %34 = load i8*, i8** %2, align 8
  %35 = load i32, i32* %3, align 4
  %36 = sub nsw i32 %35, 3
  %37 = sext i32 %36 to i64
  %38 = getelementptr inbounds i8, i8* %34, i64 %37
  store i8 0, i8* %38, align 1
  br label %39

39:                                               ; preds = %33, %24, %15, %1
  %40 = load i8*, i8** %2, align 8
  %41 = load i32, i32* %3, align 4
  %42 = sub nsw i32 %41, 2
  %43 = sext i32 %42 to i64
  %44 = getelementptr inbounds i8, i8* %40, i64 %43
  %45 = load i8, i8* %44, align 1
  %46 = sext i8 %45 to i32
  %47 = icmp eq i32 %46, 101
  br i1 %47, label %48, label %63

48:                                               ; preds = %39
  %49 = load i8*, i8** %2, align 8
  %50 = load i32, i32* %3, align 4
  %51 = sub nsw i32 %50, 1
  %52 = sext i32 %51 to i64
  %53 = getelementptr inbounds i8, i8* %49, i64 %52
  %54 = load i8, i8* %53, align 1
  %55 = sext i8 %54 to i32
  %56 = icmp eq i32 %55, 114
  br i1 %56, label %57, label %63

57:                                               ; preds = %48
  %58 = load i8*, i8** %2, align 8
  %59 = load i32, i32* %3, align 4
  %60 = sub nsw i32 %59, 2
  %61 = sext i32 %60 to i64
  %62 = getelementptr inbounds i8, i8* %58, i64 %61
  store i8 0, i8* %62, align 1
  br label %63

63:                                               ; preds = %57, %48, %39
  %64 = load i8*, i8** %2, align 8
  %65 = load i32, i32* %3, align 4
  %66 = sub nsw i32 %65, 2
  %67 = sext i32 %66 to i64
  %68 = getelementptr inbounds i8, i8* %64, i64 %67
  %69 = load i8, i8* %68, align 1
  %70 = sext i8 %69 to i32
  %71 = icmp eq i32 %70, 108
  br i1 %71, label %72, label %87

72:                                               ; preds = %63
  %73 = load i8*, i8** %2, align 8
  %74 = load i32, i32* %3, align 4
  %75 = sub nsw i32 %74, 1
  %76 = sext i32 %75 to i64
  %77 = getelementptr inbounds i8, i8* %73, i64 %76
  %78 = load i8, i8* %77, align 1
  %79 = sext i8 %78 to i32
  %80 = icmp eq i32 %79, 121
  br i1 %80, label %81, label %87

81:                                               ; preds = %72
  %82 = load i8*, i8** %2, align 8
  %83 = load i32, i32* %3, align 4
  %84 = sub nsw i32 %83, 2
  %85 = sext i32 %84 to i64
  %86 = getelementptr inbounds i8, i8* %82, i64 %85
  store i8 0, i8* %86, align 1
  br label %87

87:                                               ; preds = %81, %72, %63
  ret i32 0
}

declare dso_local i32 @printf(i8*, ...) #1

; Function Attrs: nounwind readonly
declare dso_local i64 @strlen(i8*) #2


!llvm.module.flags = !{!0}
!llvm.ident = !{!1}

!0 = !{i32 1, !"wchar_size", i32 4}
!1 = !{!"clang version 10.0.0-4ubuntu1 "}
